target datalayout = "e-m:e-p270:32:32-p271:32:32-p272:64:64-i64:64-i128:128-f80:128-n8:16:32:64-S128"
target triple = "x86_64-pc-linux-gnu"

%struct.hsts = type { %struct.Curl_llist, ptr, i32 }
%struct.Curl_llist = type { ptr, ptr, ptr, i64 }
%struct.stsentry = type { %struct.Curl_llist_node, ptr, i8, i64 }
%struct.Curl_llist_node = type { ptr, ptr, ptr, ptr }

@Curl_cfree = external global ptr, align 8

; Function Attrs: nounwind uwtable
define internal void @hsts_free(ptr noundef %0) #0 {
  %2 = alloca ptr, align 8
  store ptr %0, ptr %2, align 8, !tbaa !14
  %3 = load ptr, ptr @Curl_cfree, align 8, !tbaa !4
  %4 = load ptr, ptr %2, align 8, !tbaa !14
  %5 = getelementptr inbounds nuw %struct.stsentry, ptr %4, i32 0, i32 1
  %6 = load ptr, ptr %5, align 8, !tbaa !24
  call void %3(ptr noundef %6)
  %7 = load ptr, ptr @Curl_cfree, align 8, !tbaa !4
  %8 = load ptr, ptr %2, align 8, !tbaa !14
  call void %7(ptr noundef %8)
  ret void
}

; Function Attrs: nounwind uwtable
define dso_local ptr @Curl_hsts(ptr noundef %0, ptr noundef %1, i1 noundef zeroext %2) #0 {
  %4 = alloca ptr, align 8
  %5 = alloca ptr, align 8
  %6 = alloca ptr, align 8
  %7 = alloca i8, align 1
  %8 = alloca ptr, align 8
  %9 = alloca i64, align 8
  %10 = alloca i64, align 8
  %11 = alloca ptr, align 8
  %12 = alloca ptr, align 8
  %13 = alloca i64, align 8
  %14 = alloca i32, align 4
  %15 = alloca ptr, align 8
  %16 = alloca i64, align 8
  %17 = alloca i64, align 8
  store ptr %0, ptr %5, align 8, !tbaa !8
  store ptr %1, ptr %6, align 8, !tbaa !29
  %18 = zext i1 %2 to i8
  store i8 %18, ptr %7, align 1, !tbaa !31
  call void @llvm.lifetime.start.p0(i64 8, ptr %8) #5
  store ptr null, ptr %8, align 8, !tbaa !14
  %19 = load ptr, ptr %5, align 8, !tbaa !8
  %20 = icmp ne ptr %19, null
  br i1 %20, label %21, label %132

21:                                               ; preds = %3
  call void @llvm.lifetime.start.p0(i64 8, ptr %9) #5
  %22 = call i64 @time(ptr noundef null) #5
  store i64 %22, ptr %9, align 8, !tbaa !30
  call void @llvm.lifetime.start.p0(i64 8, ptr %10) #5
  %23 = load ptr, ptr %6, align 8, !tbaa !29
  %24 = call i64 @strlen(ptr noundef %23) #6
  store i64 %24, ptr %10, align 8, !tbaa !30
  call void @llvm.lifetime.start.p0(i64 8, ptr %11) #5
  call void @llvm.lifetime.start.p0(i64 8, ptr %12) #5
  call void @llvm.lifetime.start.p0(i64 8, ptr %13) #5
  store i64 0, ptr %13, align 8, !tbaa !30
  %25 = load i64, ptr %10, align 8, !tbaa !30
  %26 = icmp ugt i64 %25, 256
  br i1 %26, label %30, label %27

27:                                               ; preds = %21
  %28 = load i64, ptr %10, align 8, !tbaa !30
  %29 = icmp ne i64 %28, 0
  br i1 %29, label %31, label %30

30:                                               ; preds = %27, %21
  store ptr null, ptr %4, align 8
  store i32 1, ptr %14, align 4
  br label %129

31:                                               ; preds = %27
  %32 = load ptr, ptr %6, align 8, !tbaa !29
  %33 = load i64, ptr %10, align 8, !tbaa !30
  %34 = sub i64 %33, 1
  %35 = getelementptr inbounds nuw i8, ptr %32, i64 %34
  %36 = load i8, ptr %35, align 1, !tbaa !32
  %37 = sext i8 %36 to i32
  %38 = icmp eq i32 %37, 46
  br i1 %38, label %39, label %42

39:                                               ; preds = %31
  %40 = load i64, ptr %10, align 8, !tbaa !30
  %41 = add i64 %40, -1
  store i64 %41, ptr %10, align 8, !tbaa !30
  br label %42

42:                                               ; preds = %39, %31
  %43 = load ptr, ptr %5, align 8, !tbaa !8
  %44 = getelementptr inbounds nuw %struct.hsts, ptr %43, i32 0, i32 0
  %45 = call ptr @Curl_llist_head(ptr noundef %44)
  store ptr %45, ptr %11, align 8, !tbaa !12
  br label %46

46:                                               ; preds = %126, %42
  %47 = load ptr, ptr %11, align 8, !tbaa !12
  %48 = icmp ne ptr %47, null
  br i1 %48, label %49, label %128

49:                                               ; preds = %46
  call void @llvm.lifetime.start.p0(i64 8, ptr %15) #5
  %50 = load ptr, ptr %11, align 8, !tbaa !12
  %51 = call ptr @Curl_node_elem(ptr noundef %50)
  store ptr %51, ptr %15, align 8, !tbaa !14
  call void @llvm.lifetime.start.p0(i64 8, ptr %16) #5
  %52 = load ptr, ptr %11, align 8, !tbaa !12
  %53 = call ptr @Curl_node_next(ptr noundef %52)
  store ptr %53, ptr %12, align 8, !tbaa !12
  %54 = load ptr, ptr %15, align 8, !tbaa !14
  %55 = getelementptr inbounds nuw %struct.stsentry, ptr %54, i32 0, i32 3
  %56 = load i64, ptr %55, align 8, !tbaa !42
  %57 = load i64, ptr %9, align 8, !tbaa !30
  %58 = icmp sle i64 %56, %57
  br i1 %58, label %59, label %63

59:                                               ; preds = %49
  %60 = load ptr, ptr %15, align 8, !tbaa !14
  %61 = getelementptr inbounds nuw %struct.stsentry, ptr %60, i32 0, i32 0
  call void @Curl_node_remove(ptr noundef %61)
  %62 = load ptr, ptr %15, align 8, !tbaa !14
  call void @hsts_free(ptr noundef %62)
  store i32 4, ptr %14, align 4
  br label %123

63:                                               ; preds = %49
  %64 = load ptr, ptr %15, align 8, !tbaa !14
  %65 = getelementptr inbounds nuw %struct.stsentry, ptr %64, i32 0, i32 1
  %66 = load ptr, ptr %65, align 8, !tbaa !24
  %67 = call i64 @strlen(ptr noundef %66) #6
  store i64 %67, ptr %16, align 8, !tbaa !30
  %68 = load i8, ptr %7, align 1, !tbaa !31, !range !34, !noundef !35
  %69 = trunc i8 %68 to i1
  br i1 %69, label %70, label %108

70:                                               ; preds = %63
  %71 = load ptr, ptr %15, align 8, !tbaa !14
  %72 = getelementptr inbounds nuw %struct.stsentry, ptr %71, i32 0, i32 2
  %73 = load i8, ptr %72, align 8, !tbaa !43, !range !34, !noundef !35
  %74 = trunc i8 %73 to i1
  br i1 %74, label %75, label %108

75:                                               ; preds = %70
  %76 = load i64, ptr %16, align 8, !tbaa !30
  %77 = load i64, ptr %10, align 8, !tbaa !30
  %78 = icmp ult i64 %76, %77
  br i1 %78, label %79, label %108

79:                                               ; preds = %75
  call void @llvm.lifetime.start.p0(i64 8, ptr %17) #5
  %80 = load i64, ptr %10, align 8, !tbaa !30
  %81 = load i64, ptr %16, align 8, !tbaa !30
  %82 = sub i64 %80, %81
  store i64 %82, ptr %17, align 8, !tbaa !30
  %83 = load ptr, ptr %6, align 8, !tbaa !29
  %84 = load i64, ptr %17, align 8, !tbaa !30
  %85 = sub i64 %84, 1
  %86 = getelementptr inbounds nuw i8, ptr %83, i64 %85
  %87 = load i8, ptr %86, align 1, !tbaa !32
  %88 = sext i8 %87 to i32
  %89 = icmp eq i32 %88, 46
  br i1 %89, label %90, label %107

90:                                               ; preds = %79
  %91 = load ptr, ptr %6, align 8, !tbaa !29
  %92 = load i64, ptr %17, align 8, !tbaa !30
  %93 = getelementptr inbounds nuw i8, ptr %91, i64 %92
  %94 = load ptr, ptr %15, align 8, !tbaa !14
  %95 = getelementptr inbounds nuw %struct.stsentry, ptr %94, i32 0, i32 1
  %96 = load ptr, ptr %95, align 8, !tbaa !24
  %97 = load i64, ptr %16, align 8, !tbaa !30
  %98 = call i32 @curl_strnequal(ptr noundef %93, ptr noundef %96, i64 noundef %97)
  %99 = icmp ne i32 %98, 0
  br i1 %99, label %100, label %107

100:                                              ; preds = %90
  %101 = load i64, ptr %16, align 8, !tbaa !30
  %102 = load i64, ptr %13, align 8, !tbaa !30
  %103 = icmp ugt i64 %101, %102
  br i1 %103, label %104, label %107

104:                                              ; preds = %100
  %105 = load ptr, ptr %15, align 8, !tbaa !14
  store ptr %105, ptr %8, align 8, !tbaa !14
  %106 = load i64, ptr %16, align 8, !tbaa !30
  store i64 %106, ptr %13, align 8, !tbaa !30
  br label %107

107:                                              ; preds = %104, %100, %90, %79
  call void @llvm.lifetime.end.p0(i64 8, ptr %17) #5
  br label %108

108:                                              ; preds = %107, %75, %70, %63
  %109 = load i64, ptr %10, align 8, !tbaa !30
  %110 = load i64, ptr %16, align 8, !tbaa !30
  %111 = icmp eq i64 %109, %110
  br i1 %111, label %112, label %122

112:                                              ; preds = %108
  %113 = load ptr, ptr %6, align 8, !tbaa !29
  %114 = load ptr, ptr %15, align 8, !tbaa !14
  %115 = getelementptr inbounds nuw %struct.stsentry, ptr %114, i32 0, i32 1
  %116 = load ptr, ptr %115, align 8, !tbaa !24
  %117 = load i64, ptr %10, align 8, !tbaa !30
  %118 = call i32 @curl_strnequal(ptr noundef %113, ptr noundef %116, i64 noundef %117)
  %119 = icmp ne i32 %118, 0
  br i1 %119, label %120, label %122

120:                                              ; preds = %112
  %121 = load ptr, ptr %15, align 8, !tbaa !14
  store ptr %121, ptr %4, align 8
  store i32 1, ptr %14, align 4
  br label %123

122:                                              ; preds = %112, %108
  store i32 0, ptr %14, align 4
  br label %123

123:                                              ; preds = %122, %120, %59
  call void @llvm.lifetime.end.p0(i64 8, ptr %16) #5
  call void @llvm.lifetime.end.p0(i64 8, ptr %15) #5
  %124 = load i32, ptr %14, align 4
  switch i32 %124, label %129 [
    i32 0, label %125
    i32 4, label %126
  ]

125:                                              ; preds = %123
  br label %126

126:                                              ; preds = %125, %123
  %127 = load ptr, ptr %12, align 8, !tbaa !12
  store ptr %127, ptr %11, align 8, !tbaa !12
  br label %46, !llvm.loop !44

128:                                              ; preds = %46
  store i32 0, ptr %14, align 4
  br label %129

129:                                              ; preds = %128, %123, %30
  call void @llvm.lifetime.end.p0(i64 8, ptr %13) #5
  call void @llvm.lifetime.end.p0(i64 8, ptr %12) #5
  call void @llvm.lifetime.end.p0(i64 8, ptr %11) #5
  call void @llvm.lifetime.end.p0(i64 8, ptr %10) #5
  call void @llvm.lifetime.end.p0(i64 8, ptr %9) #5
  %130 = load i32, ptr %14, align 4
  switch i32 %130, label %134 [
    i32 0, label %131
  ]

131:                                              ; preds = %129
  br label %132

132:                                              ; preds = %131, %3
  %133 = load ptr, ptr %8, align 8, !tbaa !14
  store ptr %133, ptr %4, align 8
  store i32 1, ptr %14, align 4
  br label %134

134:                                              ; preds = %132, %129
  call void @llvm.lifetime.end.p0(i64 8, ptr %8) #5
  %135 = load ptr, ptr %4, align 8
  ret ptr %135
}