; Function Attrs: nounwind uwtable
define dso_local ptr @Curl_hsts(ptr noundef %0, ptr noundef %1, i1 noundef zeroext %2) local_unnamed_addr #0 {
  %.not = icmp eq ptr %0, null
  br i1 %.not, label %.thread75, label %4

4:                                                ; preds = %3
  %5 = tail call i64 @time(ptr noundef null) #9
  %6 = tail call i64 @strlen(ptr noundef nonnull dereferenceable(1) %1) #10
  %7 = add i64 %6, -1
  %or.cond = icmp ult i64 %7, 256
  br i1 %or.cond, label %8, label %.thread75

8:                                                ; preds = %4
  %9 = getelementptr i8, ptr %1, i64 %6
  %10 = getelementptr i8, ptr %9, i64 -1
  %11 = load i8, ptr %10, align 1, !tbaa !25
  %12 = icmp eq i8 %11, 46
  %spec.select = select i1 %12, i64 %7, i64 %6
  %13 = tail call ptr @Curl_llist_head(ptr noundef nonnull %0) #9
  %.not5880 = icmp eq ptr %13, null
  br i1 %.not5880, label %.thread75, label %.lr.ph

.lr.ph:                                           ; preds = %8
  br i1 %2, label %.lr.ph.split.us, label %.lr.ph.split

.lr.ph.split.us:                                  ; preds = %.lr.ph, %45
  %.24583.us = phi ptr [ %.346.ph.us, %45 ], [ null, %.lr.ph ]
  %.05082.us = phi i64 [ %.151.ph.us, %45 ], [ 0, %.lr.ph ]
  %.05481.us = phi ptr [ %15, %45 ], [ %13, %.lr.ph ]
  %14 = tail call ptr @Curl_node_elem(ptr noundef nonnull %.05481.us) #9
  %15 = tail call ptr @Curl_node_next(ptr noundef nonnull %.05481.us) #9
  %16 = getelementptr inbounds nuw i8, ptr %14, i64 48
  %17 = load i64, ptr %16, align 8, !tbaa !33
  %.not59.us = icmp sgt i64 %17, %5
  br i1 %.not59.us, label %23, label %18

18:                                               ; preds = %.lr.ph.split.us
  tail call void @Curl_node_remove(ptr noundef nonnull %14) #9
  %19 = load ptr, ptr @Curl_cfree, align 8, !tbaa !4
  %20 = getelementptr inbounds nuw i8, ptr %14, i64 32
  %21 = load ptr, ptr %20, align 8, !tbaa !10
  tail call void %19(ptr noundef %21) #9
  %22 = load ptr, ptr @Curl_cfree, align 8, !tbaa !4
  tail call void %22(ptr noundef nonnull %14) #9
  br label %45

23:                                               ; preds = %.lr.ph.split.us
  %24 = getelementptr inbounds nuw i8, ptr %14, i64 32
  %25 = load ptr, ptr %24, align 8, !tbaa !10
  %26 = tail call i64 @strlen(ptr noundef nonnull dereferenceable(1) %25) #10
  %27 = getelementptr inbounds nuw i8, ptr %14, i64 40
  %28 = load i8, ptr %27, align 8, !tbaa !34, !range !35, !noundef !36
  %29 = trunc nuw i8 %28 to i1
  %30 = icmp ult i64 %26, %spec.select
  %or.cond62.us = select i1 %29, i1 %30, i1 false
  br i1 %or.cond62.us, label %31, label %40

31:                                               ; preds = %23
  %32 = sub nuw nsw i64 %spec.select, %26
  %33 = getelementptr i8, ptr %1, i64 %32
  %34 = getelementptr i8, ptr %33, i64 -1
  %35 = load i8, ptr %34, align 1, !tbaa !25
  %36 = icmp eq i8 %35, 46
  br i1 %36, label %37, label %40

37:                                               ; preds = %31
  %38 = tail call i32 @curl_strnequal(ptr noundef nonnull %33, ptr noundef nonnull %25, i64 noundef %26) #9
  %.not60.us = icmp ne i32 %38, 0
  %39 = icmp ugt i64 %26, %.05082.us
  %or.cond63.us = select i1 %.not60.us, i1 %39, i1 false
  %spec.select64.us = select i1 %or.cond63.us, i64 %26, i64 %.05082.us
  %spec.select65.us = select i1 %or.cond63.us, ptr %14, ptr %.24583.us
  br label %40

40:                                               ; preds = %37, %31, %23
  %.252.us = phi i64 [ %.05082.us, %23 ], [ %.05082.us, %31 ], [ %spec.select64.us, %37 ]
  %.4.us = phi ptr [ %.24583.us, %23 ], [ %.24583.us, %31 ], [ %spec.select65.us, %37 ]
  %41 = icmp eq i64 %spec.select, %26
  br i1 %41, label %42, label %45

42:                                               ; preds = %40
  %43 = load ptr, ptr %24, align 8, !tbaa !10
  %44 = tail call i32 @curl_strnequal(ptr noundef nonnull %1, ptr noundef %43, i64 noundef %spec.select) #9
  %.not61.us = icmp eq i32 %44, 0
  br i1 %.not61.us, label %45, label %.thread75

45:                                               ; preds = %42, %40, %18
  %.151.ph.us = phi i64 [ %.05082.us, %18 ], [ %.252.us, %42 ], [ %.252.us, %40 ]
  %.346.ph.us = phi ptr [ %.24583.us, %18 ], [ %.4.us, %42 ], [ %.4.us, %40 ]
  %.not58.us = icmp eq ptr %15, null
  br i1 %.not58.us, label %.thread75, label %.lr.ph.split.us, !llvm.loop !37

.lr.ph.split:                                     ; preds = %.lr.ph, %62
  %.05481 = phi ptr [ %47, %62 ], [ %13, %.lr.ph ]
  %46 = tail call ptr @Curl_node_elem(ptr noundef nonnull %.05481) #9
  %47 = tail call ptr @Curl_node_next(ptr noundef nonnull %.05481) #9
  %48 = getelementptr inbounds nuw i8, ptr %46, i64 48
  %49 = load i64, ptr %48, align 8, !tbaa !33
  %.not59 = icmp sgt i64 %49, %5
  br i1 %.not59, label %55, label %50

50:                                               ; preds = %.lr.ph.split
  tail call void @Curl_node_remove(ptr noundef nonnull %46) #9
  %51 = load ptr, ptr @Curl_cfree, align 8, !tbaa !4
  %52 = getelementptr inbounds nuw i8, ptr %46, i64 32
  %53 = load ptr, ptr %52, align 8, !tbaa !10
  tail call void %51(ptr noundef %53) #9
  %54 = load ptr, ptr @Curl_cfree, align 8, !tbaa !4
  tail call void %54(ptr noundef nonnull %46) #9
  br label %62

55:                                               ; preds = %.lr.ph.split
  %56 = getelementptr inbounds nuw i8, ptr %46, i64 32
  %57 = load ptr, ptr %56, align 8, !tbaa !10
  %58 = tail call i64 @strlen(ptr noundef nonnull dereferenceable(1) %57) #10
  %59 = icmp eq i64 %spec.select, %58
  br i1 %59, label %60, label %62

60:                                               ; preds = %55
  %61 = tail call i32 @curl_strnequal(ptr noundef nonnull %1, ptr noundef nonnull %57, i64 noundef %spec.select) #9
  %.not61 = icmp eq i32 %61, 0
  br i1 %.not61, label %62, label %.thread75

62:                                               ; preds = %55, %60, %50
  %.not58 = icmp eq ptr %47, null
  br i1 %.not58, label %.thread75, label %.lr.ph.split, !llvm.loop !37

.thread75:                                        ; preds = %62, %60, %45, %42, %8, %4, %3
  %.3 = phi ptr [ null, %3 ], [ null, %4 ], [ null, %8 ], [ %.346.ph.us, %45 ], [ %14, %42 ], [ null, %62 ], [ %46, %60 ]
  ret ptr %.3
}